target datalayout = "e-m:e-p270:32:32-p271:32:32-p272:64:64-i64:64-i128:128-f80:128-n8:16:32:64-S128"
target triple = "x86_64-pc-linux-gnu"

%struct.PKCS12_SAFEBAG_st = type { ptr, %union.anon, ptr }
%union.anon = type { ptr }
%struct.pkcs12_bag_st = type { ptr, %union.anon.0 }
%union.anon.0 = type { ptr }

; Function Attrs: nounwind uwtable
define i32 @PKCS12_SAFEBAG_get_nid(ptr noundef %0) #0 {
  %2 = alloca ptr, align 8
  store ptr %0, ptr %2, align 8, !tbaa !3
  %3 = load ptr, ptr %2, align 8, !tbaa !3
  %4 = getelementptr inbounds nuw %struct.PKCS12_SAFEBAG_st, ptr %3, i32 0, i32 0
  %5 = load ptr, ptr %4, align 8, !tbaa !17
  %6 = call i32 @OBJ_obj2nid(ptr noundef %5)
  ret i32 %6
}

; Function Attrs: nounwind uwtable
define ptr @PKCS12_SAFEBAG_get1_crl(ptr noundef %0) #0 {
  %2 = alloca ptr, align 8
  %3 = alloca ptr, align 8
  store ptr %0, ptr %3, align 8, !tbaa !3
  %4 = load ptr, ptr %3, align 8, !tbaa !3
  %5 = call i32 @PKCS12_SAFEBAG_get_nid(ptr noundef %4)
  %6 = icmp ne i32 %5, 153
  br i1 %6, label %7, label %8

7:                                                ; preds = %1
  store ptr null, ptr %2, align 8
  br label %25

8:                                                ; preds = %1
  %9 = load ptr, ptr %3, align 8, !tbaa !3
  %10 = getelementptr inbounds nuw %struct.PKCS12_SAFEBAG_st, ptr %9, i32 0, i32 1
  %11 = load ptr, ptr %10, align 8, !tbaa !16
  %12 = getelementptr inbounds nuw %struct.pkcs12_bag_st, ptr %11, i32 0, i32 0
  %13 = load ptr, ptr %12, align 8, !tbaa !18
  %14 = call i32 @OBJ_obj2nid(ptr noundef %13)
  %15 = icmp ne i32 %14, 160
  br i1 %15, label %16, label %17

16:                                               ; preds = %8
  store ptr null, ptr %2, align 8
  br label %25

17:                                               ; preds = %8
  %18 = load ptr, ptr %3, align 8, !tbaa !3
  %19 = getelementptr inbounds nuw %struct.PKCS12_SAFEBAG_st, ptr %18, i32 0, i32 1
  %20 = load ptr, ptr %19, align 8, !tbaa !16
  %21 = getelementptr inbounds nuw %struct.pkcs12_bag_st, ptr %20, i32 0, i32 1
  %22 = load ptr, ptr %21, align 8, !tbaa !16
  %23 = call ptr @X509_CRL_it()
  %24 = call ptr @ASN1_item_unpack(ptr noundef %22, ptr noundef %23)
  store ptr %24, ptr %2, align 8
  br label %25

25:                                               ; preds = %17, %16, %7
  %26 = load ptr, ptr %2, align 8
  ret ptr %26
}