; Function Attrs: nounwind uwtable
define ptr @PKCS12_SAFEBAG_get1_crl(ptr noundef readonly captures(none) %0) local_unnamed_addr #0 {
  %2 = load ptr, ptr %0, align 8, !tbaa !10
  %3 = tail call i32 @OBJ_obj2nid(ptr noundef %2) #4
  %.not = icmp eq i32 %3, 153
  br i1 %.not, label %4, label %15

4:                                                ; preds = %1
  %5 = getelementptr inbounds nuw i8, ptr %0, i64 8
  %6 = load ptr, ptr %5, align 8, !tbaa !11
  %7 = load ptr, ptr %6, align 8, !tbaa !12
  %8 = tail call i32 @OBJ_obj2nid(ptr noundef %7) #4
  %.not4 = icmp eq i32 %8, 160
  br i1 %.not4, label %9, label %15

9:                                                ; preds = %4
  %10 = load ptr, ptr %5, align 8, !tbaa !11
  %11 = getelementptr inbounds nuw i8, ptr %10, i64 8
  %12 = load ptr, ptr %11, align 8, !tbaa !11
  %13 = tail call ptr @X509_CRL_it() #4
  %14 = tail call ptr @ASN1_item_unpack(ptr noundef %12, ptr noundef %13) #4
  br label %15

15:                                               ; preds = %4, %1, %9
  %.0 = phi ptr [ %14, %9 ], [ null, %1 ], [ null, %4 ]
  ret ptr %.0
}